target datalayout = "e-m:e-p270:32:32-p271:32:32-p272:64:64-i64:64-i128:128-f80:128-n8:16:32:64-S128"
target triple = "x86_64-pc-linux-gnu"

%class.NavMeshTesterTool = type { %struct.SampleTool, ptr, ptr, ptr, %class.dtQueryFilter, i32, i32, i32, i32, i32, [256 x i32], [256 x i32], i32, [768 x float], [256 x i8], [256 x i32], i32, [3 x float], [6144 x float], i32, [12 x float], [192 x float], i32, i8, [3 x float], [3 x float], [3 x float], [3 x float], i8, float, float, float, i8, i8, i32, [256 x i32], i32, [3 x float], [3 x float], [3 x float], [3 x float], [30 x float], i32 }
%struct.SampleTool = type { ptr }
%class.dtQueryFilter = type { [64 x float], i16, i16 }

; Function Attrs: mustprogress nounwind uwtable
define dso_local void @_ZN17NavMeshTesterTool5resetEv(ptr noundef nonnull align 8 dereferenceable(33408) %0) unnamed_addr #1 align 2 {
  %2 = alloca ptr, align 8
  store ptr %0, ptr %2, align 8
  %3 = load ptr, ptr %2, align 8
  %4 = getelementptr inbounds %class.NavMeshTesterTool, ptr %3, i32 0, i32 8
  store i32 0, ptr %4, align 8
  %5 = getelementptr inbounds %class.NavMeshTesterTool, ptr %3, i32 0, i32 9
  store i32 0, ptr %5, align 4
  %6 = getelementptr inbounds %class.NavMeshTesterTool, ptr %3, i32 0, i32 12
  store i32 0, ptr %6, align 8
  %7 = getelementptr inbounds %class.NavMeshTesterTool, ptr %3, i32 0, i32 16
  store i32 0, ptr %7, align 4
  %8 = getelementptr inbounds %class.NavMeshTesterTool, ptr %3, i32 0, i32 19
  store i32 0, ptr %8, align 4
  %9 = getelementptr inbounds %class.NavMeshTesterTool, ptr %3, i32 0, i32 26
  %10 = getelementptr inbounds [3 x float], ptr %9, i64 0, i64 0
  call void @llvm.memset.p0.i64(ptr align 8 %10, i8 0, i64 12, i1 false)
  %11 = getelementptr inbounds %class.NavMeshTesterTool, ptr %3, i32 0, i32 27
  %12 = getelementptr inbounds [3 x float], ptr %11, i64 0, i64 0
  call void @llvm.memset.p0.i64(ptr align 4 %12, i8 0, i64 12, i1 false)
  %13 = getelementptr inbounds %class.NavMeshTesterTool, ptr %3, i32 0, i32 29
  store float 0.000000e+00, ptr %13, align 4
  ret void
}