; Function Attrs: mustprogress nofree norecurse nosync nounwind willreturn memory(argmem: write) uwtable
define dso_local void @_ZN17NavMeshTesterTool5resetEv(ptr nocapture noundef nonnull writeonly align 8 dereferenceable(33408) %0) unnamed_addr #6 align 2 {
  %2 = getelementptr inbounds i8, ptr %0, i64 304
  store i32 0, ptr %2, align 8
  %3 = getelementptr inbounds i8, ptr %0, i64 308
  store i32 0, ptr %3, align 4
  %4 = getelementptr inbounds i8, ptr %0, i64 2360
  store i32 0, ptr %4, align 8
  %5 = getelementptr inbounds i8, ptr %0, i64 6716
  store i32 0, ptr %5, align 4
  %6 = getelementptr inbounds i8, ptr %0, i64 31308
  store i32 0, ptr %6, align 4
  %7 = getelementptr inbounds i8, ptr %0, i64 32160
  %8 = getelementptr inbounds i8, ptr %0, i64 32188
  store float 0.000000e+00, ptr %8, align 4
  tail call void @llvm.memset.p0.i64(ptr noundef nonnull align 8 dereferenceable(24) %7, i8 0, i64 24, i1 false)
  ret void
}